; ModuleID = '46/88.c'
source_filename = "46/88.c"
target datalayout = "e-m:e-p270:32:32-p271:32:32-p272:64:64-i64:64-f80:128-n8:16:32:64-S128"
target triple = "x86_64-pc-linux-gnu"

@.str = private unnamed_addr constant [6 x i8] c"%d %d\00", align 1
@.str.1 = private unnamed_addr constant [3 x i8] c"%d\00", align 1
@.str.2 = private unnamed_addr constant [4 x i8] c"%d\0A\00", align 1

; Function Attrs: noinline nounwind uwtable
define dso_local i32 @main() #0 {
  %1 = alloca i32, align 4
  %2 = alloca i32, align 4
  %3 = alloca i32, align 4
  %4 = alloca i32, align 4
  %5 = alloca i32, align 4
  %6 = alloca [100 x [100 x i32]], align 16
  %7 = alloca i32, align 4
  store i32 0, i32* %1, align 4
  %8 = call i32 (i8*, ...) @__isoc99_scanf(i8* getelementptr inbounds ([6 x i8], [6 x i8]* @.str, i64 0, i64 0), i32* %2, i32* %3)
  store i32 0, i32* %4, align 4
  br label %9

9:                                                ; preds = %30, %0
  %10 = load i32, i32* %4, align 4
  %11 = load i32, i32* %2, align 4
  %12 = icmp slt i32 %10, %11
  br i1 %12, label %13, label %33

13:                                               ; preds = %9
  store i32 0, i32* %5, align 4
  br label %14

14:                                               ; preds = %26, %13
  %15 = load i32, i32* %5, align 4
  %16 = load i32, i32* %3, align 4
  %17 = icmp slt i32 %15, %16
  br i1 %17, label %18, label %29

18:                                               ; preds = %14
  %19 = load i32, i32* %4, align 4
  %20 = sext i32 %19 to i64
  %21 = getelementptr inbounds [100 x [100 x i32]], [100 x [100 x i32]]* %6, i64 0, i64 %20
  %22 = load i32, i32* %5, align 4
  %23 = sext i32 %22 to i64
  %24 = getelementptr inbounds [100 x i32], [100 x i32]* %21, i64 0, i64 %23
  %25 = call i32 (i8*, ...) @__isoc99_scanf(i8* getelementptr inbounds ([3 x i8], [3 x i8]* @.str.1, i64 0, i64 0), i32* %24)
  br label %26

26:                                               ; preds = %18
  %27 = load i32, i32* %5, align 4
  %28 = add nsw i32 %27, 1
  store i32 %28, i32* %5, align 4
  br label %14

29:                                               ; preds = %14
  br label %30

30:                                               ; preds = %29
  %31 = load i32, i32* %4, align 4
  %32 = add nsw i32 %31, 1
  store i32 %32, i32* %4, align 4
  br label %9

33:                                               ; preds = %9
  store i32 0, i32* %7, align 4
  br label %34

34:                                               ; preds = %164, %33
  %35 = load i32, i32* %7, align 4
  %36 = load i32, i32* %3, align 4
  %37 = add nsw i32 %36, 1
  %38 = sdiv i32 %37, 2
  %39 = icmp slt i32 %35, %38
  br i1 %39, label %40, label %46

40:                                               ; preds = %34
  %41 = load i32, i32* %7, align 4
  %42 = load i32, i32* %2, align 4
  %43 = add nsw i32 %42, 1
  %44 = sdiv i32 %43, 2
  %45 = icmp slt i32 %41, %44
  br label %46

46:                                               ; preds = %40, %34
  %47 = phi i1 [ false, %34 ], [ %45, %40 ]
  br i1 %47, label %48, label %167

48:                                               ; preds = %46
  %49 = load i32, i32* %7, align 4
  store i32 %49, i32* %5, align 4
  br label %50

50:                                               ; preds = %65, %48
  %51 = load i32, i32* %5, align 4
  %52 = load i32, i32* %3, align 4
  %53 = load i32, i32* %7, align 4
  %54 = sub nsw i32 %52, %53
  %55 = icmp slt i32 %51, %54
  br i1 %55, label %56, label %68

56:                                               ; preds = %50
  %57 = load i32, i32* %7, align 4
  %58 = sext i32 %57 to i64
  %59 = getelementptr inbounds [100 x [100 x i32]], [100 x [100 x i32]]* %6, i64 0, i64 %58
  %60 = load i32, i32* %5, align 4
  %61 = sext i32 %60 to i64
  %62 = getelementptr inbounds [100 x i32], [100 x i32]* %59, i64 0, i64 %61
  %63 = load i32, i32* %62, align 4
  %64 = call i32 (i8*, ...) @printf(i8* getelementptr inbounds ([4 x i8], [4 x i8]* @.str.2, i64 0, i64 0), i32 %63)
  br label %65

65:                                               ; preds = %56
  %66 = load i32, i32* %5, align 4
  %67 = add nsw i32 %66, 1
  store i32 %67, i32* %5, align 4
  br label %50

68:                                               ; preds = %50
  %69 = load i32, i32* %7, align 4
  %70 = add nsw i32 %69, 1
  %71 = load i32, i32* %2, align 4
  %72 = load i32, i32* %7, align 4
  %73 = sub nsw i32 %71, %72
  %74 = icmp sge i32 %70, %73
  br i1 %74, label %75, label %76

75:                                               ; preds = %68
  br label %167

76:                                               ; preds = %68
  %77 = load i32, i32* %7, align 4
  %78 = add nsw i32 %77, 1
  store i32 %78, i32* %4, align 4
  br label %79

79:                                               ; preds = %97, %76
  %80 = load i32, i32* %4, align 4
  %81 = load i32, i32* %2, align 4
  %82 = load i32, i32* %7, align 4
  %83 = sub nsw i32 %81, %82
  %84 = icmp slt i32 %80, %83
  br i1 %84, label %85, label %100

85:                                               ; preds = %79
  %86 = load i32, i32* %4, align 4
  %87 = sext i32 %86 to i64
  %88 = getelementptr inbounds [100 x [100 x i32]], [100 x [100 x i32]]* %6, i64 0, i64 %87
  %89 = load i32, i32* %3, align 4
  %90 = load i32, i32* %7, align 4
  %91 = sub nsw i32 %89, %90
  %92 = sub nsw i32 %91, 1
  %93 = sext i32 %92 to i64
  %94 = getelementptr inbounds [100 x i32], [100 x i32]* %88, i64 0, i64 %93
  %95 = load i32, i32* %94, align 4
  %96 = call i32 (i8*, ...) @printf(i8* getelementptr inbounds ([4 x i8], [4 x i8]* @.str.2, i64 0, i64 0), i32 %95)
  br label %97

97:                                               ; preds = %85
  %98 = load i32, i32* %4, align 4
  %99 = add nsw i32 %98, 1
  store i32 %99, i32* %4, align 4
  br label %79

100:                                              ; preds = %79
  %101 = load i32, i32* %3, align 4
  %102 = load i32, i32* %7, align 4
  %103 = sub nsw i32 %101, %102
  %104 = sub nsw i32 %103, 2
  %105 = load i32, i32* %7, align 4
  %106 = icmp slt i32 %104, %105
  br i1 %106, label %107, label %108

107:                                              ; preds = %100
  br label %167

108:                                              ; preds = %100
  %109 = load i32, i32* %3, align 4
  %110 = load i32, i32* %7, align 4
  %111 = sub nsw i32 %109, %110
  %112 = sub nsw i32 %111, 2
  store i32 %112, i32* %5, align 4
  br label %113

113:                                              ; preds = %129, %108
  %114 = load i32, i32* %5, align 4
  %115 = load i32, i32* %7, align 4
  %116 = icmp sge i32 %114, %115
  br i1 %116, label %117, label %132

117:                                              ; preds = %113
  %118 = load i32, i32* %2, align 4
  %119 = load i32, i32* %7, align 4
  %120 = sub nsw i32 %118, %119
  %121 = sub nsw i32 %120, 1
  %122 = sext i32 %121 to i64
  %123 = getelementptr inbounds [100 x [100 x i32]], [100 x [100 x i32]]* %6, i64 0, i64 %122
  %124 = load i32, i32* %5, align 4
  %125 = sext i32 %124 to i64
  %126 = getelementptr inbounds [100 x i32], [100 x i32]* %123, i64 0, i64 %125
  %127 = load i32, i32* %126, align 4
  %128 = call i32 (i8*, ...) @printf(i8* getelementptr inbounds ([4 x i8], [4 x i8]* @.str.2, i64 0, i64 0), i32 %127)
  br label %129

129:                                              ; preds = %117
  %130 = load i32, i32* %5, align 4
  %131 = add nsw i32 %130, -1
  store i32 %131, i32* %5, align 4
  br label %113

132:                                              ; preds = %113
  %133 = load i32, i32* %2, align 4
  %134 = load i32, i32* %7, align 4
  %135 = sub nsw i32 %133, %134
  %136 = sub nsw i32 %135, 2
  %137 = load i32, i32* %7, align 4
  %138 = add nsw i32 %137, 1
  %139 = icmp slt i32 %136, %138
  br i1 %139, label %140, label %141

140:                                              ; preds = %132
  br label %167

141:                                              ; preds = %132
  %142 = load i32, i32* %2, align 4
  %143 = load i32, i32* %7, align 4
  %144 = sub nsw i32 %142, %143
  %145 = sub nsw i32 %144, 2
  store i32 %145, i32* %4, align 4
  br label %146

146:                                              ; preds = %160, %141
  %147 = load i32, i32* %4, align 4
  %148 = load i32, i32* %7, align 4
  %149 = add nsw i32 %148, 1
  %150 = icmp sge i32 %147, %149
  br i1 %150, label %151, label %163

151:                                              ; preds = %146
  %152 = load i32, i32* %4, align 4
  %153 = sext i32 %152 to i64
  %154 = getelementptr inbounds [100 x [100 x i32]], [100 x [100 x i32]]* %6, i64 0, i64 %153
  %155 = load i32, i32* %7, align 4
  %156 = sext i32 %155 to i64
  %157 = getelementptr inbounds [100 x i32], [100 x i32]* %154, i64 0, i64 %156
  %158 = load i32, i32* %157, align 4
  %159 = call i32 (i8*, ...) @printf(i8* getelementptr inbounds ([4 x i8], [4 x i8]* @.str.2, i64 0, i64 0), i32 %158)
  br label %160

160:                                              ; preds = %151
  %161 = load i32, i32* %4, align 4
  %162 = add nsw i32 %161, -1
  store i32 %162, i32* %4, align 4
  br label %146

163:                                              ; preds = %146
  br label %164

164:                                              ; preds = %163
  %165 = load i32, i32* %7, align 4
  %166 = add nsw i32 %165, 1
  store i32 %166, i32* %7, align 4
  br label %34

167:                                              ; preds = %140, %107, %75, %46
  ret i32 0
}

declare dso_local i32 @__isoc99_scanf(i8*, ...) #1

declare dso_local i32 @printf(i8*, ...) #1


!llvm.module.flags = !{!0}
!llvm.ident = !{!1}

!0 = !{i32 1, !"wchar_size", i32 4}
!1 = !{!"clang version 10.0.0-4ubuntu1 "}
