; ModuleID = 'source-C-CXX/45/88.c'
source_filename = "source-C-CXX/45/88.c"
target datalayout = "e-m:e-p270:32:32-p271:32:32-p272:64:64-i64:64-f80:128-n8:16:32:64-S128"
target triple = "x86_64-pc-linux-gnu"

@.str = private unnamed_addr constant [6 x i8] c"%d %d\00", align 1
@.str.1 = private unnamed_addr constant [3 x i8] c"%d\00", align 1
@.str.2 = private unnamed_addr constant [4 x i8] c"%d\0A\00", align 1

; Function Attrs: nofree nounwind sspstrong uwtable
define dso_local i32 @main() local_unnamed_addr #0 {
  %1 = alloca i32, align 4
  %2 = alloca i32, align 4
  %3 = alloca [100 x [100 x i32]], align 16
  %4 = bitcast i32* %1 to i8*
  call void @llvm.lifetime.start.p0i8(i64 4, i8* nonnull %4) #3
  %5 = bitcast i32* %2 to i8*
  call void @llvm.lifetime.start.p0i8(i64 4, i8* nonnull %5) #3
  %6 = bitcast [100 x [100 x i32]]* %3 to i8*
  call void @llvm.lifetime.start.p0i8(i64 40000, i8* nonnull %6) #3
  %7 = call i32 (i8*, ...) @__isoc99_scanf(i8* getelementptr inbounds ([6 x i8], [6 x i8]* @.str, i64 0, i64 0), i32* nonnull %1, i32* nonnull %2)
  %8 = load i32, i32* %1, align 4, !tbaa !5
  %9 = icmp sgt i32 %8, 0
  %10 = load i32, i32* %2, align 4, !tbaa !5
  br i1 %9, label %11, label %18

11:                                               ; preds = %0
  %12 = icmp sgt i32 %10, 0
  br i1 %12, label %13, label %152

13:                                               ; preds = %11, %34
  %14 = phi i32 [ %35, %34 ], [ %8, %11 ]
  %15 = phi i32 [ %36, %34 ], [ %10, %11 ]
  %16 = phi i64 [ %37, %34 ], [ 0, %11 ]
  %17 = icmp sgt i32 %15, 0
  br i1 %17, label %24, label %34

18:                                               ; preds = %34, %0
  %19 = phi i32 [ %8, %0 ], [ %35, %34 ]
  %20 = phi i32 [ %10, %0 ], [ %36, %34 ]
  %21 = icmp sgt i32 %20, 0
  %22 = icmp sgt i32 %19, 0
  %23 = select i1 %21, i1 %22, i1 false
  br i1 %23, label %54, label %152

24:                                               ; preds = %13, %24
  %25 = phi i64 [ %28, %24 ], [ 0, %13 ]
  %26 = getelementptr inbounds [100 x [100 x i32]], [100 x [100 x i32]]* %3, i64 0, i64 %16, i64 %25
  %27 = call i32 (i8*, ...) @__isoc99_scanf(i8* getelementptr inbounds ([3 x i8], [3 x i8]* @.str.1, i64 0, i64 0), i32* nonnull %26)
  %28 = add nuw nsw i64 %25, 1
  %29 = load i32, i32* %2, align 4, !tbaa !5
  %30 = sext i32 %29 to i64
  %31 = icmp slt i64 %28, %30
  br i1 %31, label %24, label %32, !llvm.loop !9

32:                                               ; preds = %24
  %33 = load i32, i32* %1, align 4, !tbaa !5
  br label %34

34:                                               ; preds = %32, %13
  %35 = phi i32 [ %33, %32 ], [ %14, %13 ]
  %36 = phi i32 [ %29, %32 ], [ %15, %13 ]
  %37 = add nuw nsw i64 %16, 1
  %38 = sext i32 %35 to i64
  %39 = icmp slt i64 %37, %38
  br i1 %39, label %13, label %18, !llvm.loop !11

40:                                               ; preds = %145
  %41 = load i32, i32* %2, align 4, !tbaa !5
  %42 = add nsw i32 %41, 1
  %43 = sdiv i32 %42, 2
  %44 = sext i32 %43 to i64
  %45 = icmp slt i64 %80, %44
  br i1 %45, label %46, label %152, !llvm.loop !13

46:                                               ; preds = %40
  %47 = add nsw i32 %58, -1
  %48 = add nuw nsw i64 %57, 1
  %49 = load i32, i32* %1, align 4, !tbaa !5
  %50 = add nsw i32 %49, 1
  %51 = sdiv i32 %50, 2
  %52 = sext i32 %51 to i64
  %53 = icmp slt i64 %80, %52
  br i1 %53, label %54, label %152

54:                                               ; preds = %18, %46
  %55 = phi i32 [ %81, %46 ], [ 0, %18 ]
  %56 = phi i64 [ %80, %46 ], [ 0, %18 ]
  %57 = phi i64 [ %48, %46 ], [ 1, %18 ]
  %58 = phi i32 [ %47, %46 ], [ -2, %18 ]
  %59 = phi i32 [ %49, %46 ], [ %19, %18 ]
  %60 = phi i32 [ %41, %46 ], [ %20, %18 ]
  %61 = trunc i64 %56 to i32
  %62 = sub nsw i32 %60, %61
  %63 = sext i32 %62 to i64
  %64 = icmp slt i64 %56, %63
  br i1 %64, label %65, label %77

65:                                               ; preds = %54, %65
  %66 = phi i64 [ %70, %65 ], [ %56, %54 ]
  %67 = getelementptr inbounds [100 x [100 x i32]], [100 x [100 x i32]]* %3, i64 0, i64 %56, i64 %66
  %68 = load i32, i32* %67, align 4, !tbaa !5
  %69 = call i32 (i8*, ...) @printf(i8* nonnull dereferenceable(1) getelementptr inbounds ([4 x i8], [4 x i8]* @.str.2, i64 0, i64 0), i32 %68)
  %70 = add nuw nsw i64 %66, 1
  %71 = load i32, i32* %2, align 4, !tbaa !5
  %72 = sub nsw i32 %71, %61
  %73 = trunc i64 %70 to i32
  %74 = icmp sgt i32 %72, %73
  br i1 %74, label %65, label %75, !llvm.loop !14

75:                                               ; preds = %65
  %76 = load i32, i32* %1, align 4, !tbaa !5
  br label %77

77:                                               ; preds = %75, %54
  %78 = phi i32 [ %71, %75 ], [ %60, %54 ]
  %79 = phi i32 [ %76, %75 ], [ %59, %54 ]
  %80 = add nuw nsw i64 %56, 1
  %81 = add nuw nsw i32 %55, 1
  %82 = sub nsw i32 %79, %61
  %83 = sext i32 %82 to i64
  %84 = icmp slt i64 %80, %83
  br i1 %84, label %85, label %152

85:                                               ; preds = %77
  %86 = xor i32 %55, -1
  %87 = add i32 %78, %86
  %88 = sext i32 %87 to i64
  %89 = getelementptr inbounds [100 x [100 x i32]], [100 x [100 x i32]]* %3, i64 0, i64 %57, i64 %88
  %90 = load i32, i32* %89, align 4, !tbaa !5
  %91 = call i32 (i8*, ...) @printf(i8* nonnull dereferenceable(1) getelementptr inbounds ([4 x i8], [4 x i8]* @.str.2, i64 0, i64 0), i32 %90)
  %92 = add nuw nsw i64 %57, 1
  %93 = load i32, i32* %1, align 4, !tbaa !5
  %94 = sub nsw i32 %93, %61
  %95 = trunc i64 %92 to i32
  %96 = icmp sgt i32 %94, %95
  br i1 %96, label %97, label %110, !llvm.loop !15

97:                                               ; preds = %85, %97
  %98 = phi i64 [ %105, %97 ], [ %92, %85 ]
  %99 = load i32, i32* %2, align 4, !tbaa !5
  %100 = add i32 %99, %86
  %101 = sext i32 %100 to i64
  %102 = getelementptr inbounds [100 x [100 x i32]], [100 x [100 x i32]]* %3, i64 0, i64 %98, i64 %101
  %103 = load i32, i32* %102, align 4, !tbaa !5
  %104 = call i32 (i8*, ...) @printf(i8* nonnull dereferenceable(1) getelementptr inbounds ([4 x i8], [4 x i8]* @.str.2, i64 0, i64 0), i32 %103)
  %105 = add nuw nsw i64 %98, 1
  %106 = load i32, i32* %1, align 4, !tbaa !5
  %107 = sub nsw i32 %106, %61
  %108 = trunc i64 %105 to i32
  %109 = icmp sgt i32 %107, %108
  br i1 %109, label %97, label %110, !llvm.loop !15

110:                                              ; preds = %97, %85
  %111 = phi i32 [ %93, %85 ], [ %106, %97 ]
  %112 = load i32, i32* %2, align 4, !tbaa !5
  %113 = sub nsw i32 %112, %61
  %114 = add nsw i32 %113, -2
  %115 = sext i32 %114 to i64
  %116 = icmp sgt i64 %56, %115
  br i1 %116, label %152, label %117

117:                                              ; preds = %110
  %118 = add i32 %112, %58
  %119 = sext i32 %118 to i64
  %120 = add i32 %111, %86
  %121 = sext i32 %120 to i64
  %122 = getelementptr inbounds [100 x [100 x i32]], [100 x [100 x i32]]* %3, i64 0, i64 %121, i64 %119
  %123 = load i32, i32* %122, align 4, !tbaa !5
  %124 = call i32 (i8*, ...) @printf(i8* nonnull dereferenceable(1) getelementptr inbounds ([4 x i8], [4 x i8]* @.str.2, i64 0, i64 0), i32 %123)
  %125 = icmp slt i64 %56, %119
  br i1 %125, label %126, label %136, !llvm.loop !16

126:                                              ; preds = %117, %126
  %127 = phi i64 [ %128, %126 ], [ %119, %117 ]
  %128 = add nsw i64 %127, -1
  %129 = load i32, i32* %1, align 4, !tbaa !5
  %130 = add i32 %129, %86
  %131 = sext i32 %130 to i64
  %132 = getelementptr inbounds [100 x [100 x i32]], [100 x [100 x i32]]* %3, i64 0, i64 %131, i64 %128
  %133 = load i32, i32* %132, align 4, !tbaa !5
  %134 = call i32 (i8*, ...) @printf(i8* nonnull dereferenceable(1) getelementptr inbounds ([4 x i8], [4 x i8]* @.str.2, i64 0, i64 0), i32 %133)
  %135 = icmp sgt i64 %128, %56
  br i1 %135, label %126, label %136, !llvm.loop !16

136:                                              ; preds = %126, %117
  %137 = load i32, i32* %1, align 4, !tbaa !5
  %138 = sub nsw i32 %137, %61
  %139 = add nsw i32 %138, -2
  %140 = sext i32 %139 to i64
  %141 = icmp slt i64 %56, %140
  br i1 %141, label %142, label %152

142:                                              ; preds = %136
  %143 = add i32 %137, %58
  %144 = sext i32 %143 to i64
  br label %145

145:                                              ; preds = %142, %145
  %146 = phi i64 [ %144, %142 ], [ %150, %145 ]
  %147 = getelementptr inbounds [100 x [100 x i32]], [100 x [100 x i32]]* %3, i64 0, i64 %146, i64 %56
  %148 = load i32, i32* %147, align 4, !tbaa !5
  %149 = call i32 (i8*, ...) @printf(i8* nonnull dereferenceable(1) getelementptr inbounds ([4 x i8], [4 x i8]* @.str.2, i64 0, i64 0), i32 %148)
  %150 = add nsw i64 %146, -1
  %151 = icmp sgt i64 %150, %56
  br i1 %151, label %145, label %40, !llvm.loop !17

152:                                              ; preds = %136, %110, %77, %46, %40, %11, %18
  call void @llvm.lifetime.end.p0i8(i64 40000, i8* nonnull %6) #3
  call void @llvm.lifetime.end.p0i8(i64 4, i8* nonnull %5) #3
  call void @llvm.lifetime.end.p0i8(i64 4, i8* nonnull %4) #3
  ret i32 0
}

; Function Attrs: argmemonly mustprogress nofree nosync nounwind willreturn
declare void @llvm.lifetime.start.p0i8(i64 immarg, i8* nocapture) #1

; Function Attrs: nofree nounwind
declare noundef i32 @__isoc99_scanf(i8* nocapture noundef readonly, ...) local_unnamed_addr #2

; Function Attrs: nofree nounwind
declare noundef i32 @printf(i8* nocapture noundef readonly, ...) local_unnamed_addr #2

; Function Attrs: argmemonly mustprogress nofree nosync nounwind willreturn
declare void @llvm.lifetime.end.p0i8(i64 immarg, i8* nocapture) #1


!llvm.module.flags = !{!0, !1, !2, !3}
!llvm.ident = !{!4}

!0 = !{i32 1, !"wchar_size", i32 4}
!1 = !{i32 7, !"PIC Level", i32 2}
!2 = !{i32 7, !"PIE Level", i32 2}
!3 = !{i32 7, !"uwtable", i32 1}
!4 = !{!"clang version 13.0.0"}
!5 = !{!6, !6, i64 0}
!6 = !{!"int", !7, i64 0}
!7 = !{!"omnipotent char", !8, i64 0}
!8 = !{!"Simple C/C++ TBAA"}
!9 = distinct !{!9, !10}
!10 = !{!"llvm.loop.mustprogress"}
!11 = distinct !{!11, !10, !12}
!12 = !{!"llvm.loop.unswitch.partial.disable"}
!13 = distinct !{!13, !10}
!14 = distinct !{!14, !10}
!15 = distinct !{!15, !10}
!16 = distinct !{!16, !10}
!17 = distinct !{!17, !10}
